target datalayout = "e-m:e-p270:32:32-p271:32:32-p272:64:64-i64:64-i128:128-f80:128-n8:16:32:64-S128"
target triple = "x86_64-pc-linux-gnu"

%"class.gmx::MttkElement" = type { %"class.gmx::ISimulatorElement", i32, i32, float, i32, i32, float, i32, i64, ptr, ptr, ptr }
%"class.gmx::ISimulatorElement" = type { ptr }

; Function Attrs: inlinehint mustprogress nounwind uwtable
define linkonce_odr void @_ZN3gmx17ISimulatorElementC2Ev(ptr noundef nonnull align 8 dereferenceable(8) %0) unnamed_addr #0 comdat align 2 {
  %2 = alloca ptr, align 8
  store ptr %0, ptr %2, align 8, !tbaa !60
  %3 = load ptr, ptr %2, align 8
  store ptr getelementptr inbounds inrange(-16, 40) ({ [7 x ptr] }, ptr @_ZTVN3gmx17ISimulatorElementE, i32 0, i32 0, i32 2), ptr %3, align 8, !tbaa !414
  ret void
}

; Function Attrs: mustprogress nounwind uwtable
define void @_ZN3gmx11MttkElementC2EiifNS_18ScheduleOnInitStepElPKNS_19StatePropagatorDataEPNS_10EnergyDataEPNS_8MttkDataE7PbcTypeif(ptr noundef nonnull align 8 dereferenceable(72) %0, i32 noundef %1, i32 noundef %2, float noundef %3, i32 noundef %4, i64 noundef %5, ptr noundef %6, ptr noundef %7, ptr noundef %8, i32 noundef %9, i32 noundef %10, float noundef %11) unnamed_addr #2 align 2 {
  %13 = alloca ptr, align 8
  %14 = alloca i32, align 4
  %15 = alloca i32, align 4
  %16 = alloca float, align 4
  %17 = alloca i32, align 4
  %18 = alloca i64, align 8
  %19 = alloca ptr, align 8
  %20 = alloca ptr, align 8
  %21 = alloca ptr, align 8
  %22 = alloca i32, align 4
  %23 = alloca i32, align 4
  %24 = alloca float, align 4
  store ptr %0, ptr %13, align 8, !tbaa !33
  store i32 %1, ptr %14, align 4, !tbaa !114
  store i32 %2, ptr %15, align 4, !tbaa !114
  store float %3, ptr %16, align 4, !tbaa !111
  store i32 %4, ptr %17, align 4, !tbaa !1008
  store i64 %5, ptr %18, align 8, !tbaa !35
  store ptr %6, ptr %19, align 8, !tbaa !66
  store ptr %7, ptr %20, align 8, !tbaa !67
  store ptr %8, ptr %21, align 8, !tbaa !4
  store i32 %9, ptr %22, align 4, !tbaa !1009
  store i32 %10, ptr %23, align 4, !tbaa !114
  store float %11, ptr %24, align 4, !tbaa !111
  %25 = load ptr, ptr %13, align 8
  call void @_ZN3gmx17ISimulatorElementC2Ev(ptr noundef nonnull align 8 dereferenceable(8) %25) #21
  store ptr getelementptr inbounds inrange(-16, 40) ({ [7 x ptr] }, ptr @_ZTVN3gmx11MttkElementE, i32 0, i32 0, i32 2), ptr %25, align 8, !tbaa !414
  %26 = getelementptr inbounds nuw %"class.gmx::MttkElement", ptr %25, i32 0, i32 1
  %27 = load i32, ptr %22, align 4, !tbaa !1009
  store i32 %27, ptr %26, align 8, !tbaa !1000
  %28 = getelementptr inbounds nuw %"class.gmx::MttkElement", ptr %25, i32 0, i32 2
  %29 = load i32, ptr %23, align 4, !tbaa !114
  store i32 %29, ptr %28, align 4, !tbaa !1001
  %30 = getelementptr inbounds nuw %"class.gmx::MttkElement", ptr %25, i32 0, i32 3
  %31 = load float, ptr %24, align 4, !tbaa !111
  store float %31, ptr %30, align 8, !tbaa !997
  %32 = getelementptr inbounds nuw %"class.gmx::MttkElement", ptr %25, i32 0, i32 4
  %33 = load i32, ptr %14, align 4, !tbaa !114
  store i32 %33, ptr %32, align 4, !tbaa !50
  %34 = getelementptr inbounds nuw %"class.gmx::MttkElement", ptr %25, i32 0, i32 5
  %35 = load i32, ptr %15, align 4, !tbaa !114
  store i32 %35, ptr %34, align 8, !tbaa !51
  %36 = getelementptr inbounds nuw %"class.gmx::MttkElement", ptr %25, i32 0, i32 6
  %37 = load float, ptr %16, align 4, !tbaa !111
  store float %37, ptr %36, align 4, !tbaa !1002
  %38 = getelementptr inbounds nuw %"class.gmx::MttkElement", ptr %25, i32 0, i32 7
  %39 = load i32, ptr %17, align 4, !tbaa !1008
  store i32 %39, ptr %38, align 8, !tbaa !49
  %40 = getelementptr inbounds nuw %"class.gmx::MttkElement", ptr %25, i32 0, i32 8
  %41 = load i64, ptr %18, align 8, !tbaa !35
  store i64 %41, ptr %40, align 8, !tbaa !41
  %42 = getelementptr inbounds nuw %"class.gmx::MttkElement", ptr %25, i32 0, i32 9
  %43 = load ptr, ptr %19, align 8, !tbaa !66
  store ptr %43, ptr %42, align 8, !tbaa !996
  %44 = getelementptr inbounds nuw %"class.gmx::MttkElement", ptr %25, i32 0, i32 10
  %45 = load ptr, ptr %20, align 8, !tbaa !67
  store ptr %45, ptr %44, align 8, !tbaa !994
  %46 = getelementptr inbounds nuw %"class.gmx::MttkElement", ptr %25, i32 0, i32 11
  %47 = load ptr, ptr %21, align 8, !tbaa !4
  store ptr %47, ptr %46, align 8, !tbaa !55
  ret void
}