; Function Attrs: mustprogress nofree norecurse nosync nounwind willreturn memory(argmem: write) uwtable
define void @_ZN3gmx11MttkElementC2EiifNS_18ScheduleOnInitStepElPKNS_19StatePropagatorDataEPNS_10EnergyDataEPNS_8MttkDataE7PbcTypeif(ptr noundef nonnull writeonly align 8 captures(none) dereferenceable(72) initializes((0, 36), (40, 72)) %0, i32 noundef %1, i32 noundef %2, float noundef %3, i32 noundef %4, i64 noundef %5, ptr noundef %6, ptr noundef %7, ptr noundef %8, i32 noundef %9, i32 noundef %10, float noundef %11) unnamed_addr #6 align 2 {
  store ptr getelementptr inbounds nuw inrange(-16, 40) (i8, ptr @_ZTVN3gmx11MttkElementE, i64 16), ptr %0, align 8, !tbaa !289
  %13 = getelementptr inbounds nuw i8, ptr %0, i64 8
  store i32 %9, ptr %13, align 8, !tbaa !492
  %14 = getelementptr inbounds nuw i8, ptr %0, i64 12
  store i32 %10, ptr %14, align 4, !tbaa !493
  %15 = getelementptr inbounds nuw i8, ptr %0, i64 16
  store float %11, ptr %15, align 8, !tbaa !486
  %16 = getelementptr inbounds nuw i8, ptr %0, i64 20
  store i32 %1, ptr %16, align 4, !tbaa !49
  %17 = getelementptr inbounds nuw i8, ptr %0, i64 24
  store i32 %2, ptr %17, align 8, !tbaa !50
  %18 = getelementptr inbounds nuw i8, ptr %0, i64 28
  store float %3, ptr %18, align 4, !tbaa !494
  %19 = getelementptr inbounds nuw i8, ptr %0, i64 32
  store i32 %4, ptr %19, align 8, !tbaa !495
  %20 = getelementptr inbounds nuw i8, ptr %0, i64 40
  store i64 %5, ptr %20, align 8, !tbaa !40
  %21 = getelementptr inbounds nuw i8, ptr %0, i64 48
  store ptr %6, ptr %21, align 8, !tbaa !485
  %22 = getelementptr inbounds nuw i8, ptr %0, i64 56
  store ptr %7, ptr %22, align 8, !tbaa !484
  %23 = getelementptr inbounds nuw i8, ptr %0, i64 64
  store ptr %8, ptr %23, align 8, !tbaa !60
  ret void
}